; ModuleID = '37/482.c'
source_filename = "37/482.c"
target datalayout = "e-m:e-p270:32:32-p271:32:32-p272:64:64-i64:64-f80:128-n8:16:32:64-S128"
target triple = "x86_64-pc-linux-gnu"

@.str = private unnamed_addr constant [3 x i8] c"%d\00", align 1
@.str.1 = private unnamed_addr constant [3 x i8] c"%s\00", align 1
@.str.2 = private unnamed_addr constant [4 x i8] c"%c\0A\00", align 1
@.str.3 = private unnamed_addr constant [4 x i8] c"no\0A\00", align 1

; Function Attrs: noinline nounwind uwtable
define dso_local void @main() #0 {
  %1 = alloca [100000 x i8], align 16
  %2 = alloca [26 x i8], align 16
  %3 = alloca i32, align 4
  %4 = alloca i32, align 4
  %5 = alloca [26 x i32], align 16
  %6 = alloca i32, align 4
  %7 = alloca i32, align 4
  %8 = alloca i32, align 4
  %9 = call i32 (i8*, ...) @__isoc99_scanf(i8* getelementptr inbounds ([3 x i8], [3 x i8]* @.str, i64 0, i64 0), i32* %3)
  store i32 0, i32* %4, align 4
  br label %10

10:                                               ; preds = %102, %0
  %11 = load i32, i32* %4, align 4
  %12 = load i32, i32* %3, align 4
  %13 = icmp slt i32 %11, %12
  br i1 %13, label %14, label %105

14:                                               ; preds = %10
  %15 = getelementptr inbounds [100000 x i8], [100000 x i8]* %1, i64 0, i64 0
  %16 = call i32 (i8*, ...) @__isoc99_scanf(i8* getelementptr inbounds ([3 x i8], [3 x i8]* @.str.1, i64 0, i64 0), i8* %15)
  store i32 0, i32* %6, align 4
  store i32 0, i32* %8, align 4
  br label %17

17:                                               ; preds = %72, %14
  %18 = load i32, i32* %6, align 4
  %19 = sext i32 %18 to i64
  %20 = getelementptr inbounds [100000 x i8], [100000 x i8]* %1, i64 0, i64 %19
  %21 = load i8, i8* %20, align 1
  %22 = sext i8 %21 to i32
  %23 = icmp ne i32 %22, 0
  br i1 %23, label %24, label %73

24:                                               ; preds = %17
  store i32 0, i32* %7, align 4
  br label %25

25:                                               ; preds = %50, %24
  %26 = load i32, i32* %7, align 4
  %27 = load i32, i32* %8, align 4
  %28 = icmp slt i32 %26, %27
  br i1 %28, label %29, label %53

29:                                               ; preds = %25
  %30 = load i32, i32* %6, align 4
  %31 = sext i32 %30 to i64
  %32 = getelementptr inbounds [100000 x i8], [100000 x i8]* %1, i64 0, i64 %31
  %33 = load i8, i8* %32, align 1
  %34 = sext i8 %33 to i32
  %35 = load i32, i32* %7, align 4
  %36 = sext i32 %35 to i64
  %37 = getelementptr inbounds [26 x i8], [26 x i8]* %2, i64 0, i64 %36
  %38 = load i8, i8* %37, align 1
  %39 = sext i8 %38 to i32
  %40 = icmp eq i32 %34, %39
  br i1 %40, label %41, label %49

41:                                               ; preds = %29
  %42 = load i32, i32* %7, align 4
  %43 = sext i32 %42 to i64
  %44 = getelementptr inbounds [26 x i32], [26 x i32]* %5, i64 0, i64 %43
  %45 = load i32, i32* %44, align 4
  %46 = add nsw i32 %45, 1
  store i32 %46, i32* %44, align 4
  %47 = load i32, i32* %6, align 4
  %48 = add nsw i32 %47, 1
  store i32 %48, i32* %6, align 4
  br label %53

49:                                               ; preds = %29
  br label %50

50:                                               ; preds = %49
  %51 = load i32, i32* %7, align 4
  %52 = add nsw i32 %51, 1
  store i32 %52, i32* %7, align 4
  br label %25

53:                                               ; preds = %41, %25
  %54 = load i32, i32* %7, align 4
  %55 = load i32, i32* %8, align 4
  %56 = icmp eq i32 %54, %55
  br i1 %56, label %57, label %72

57:                                               ; preds = %53
  %58 = load i32, i32* %6, align 4
  %59 = sext i32 %58 to i64
  %60 = getelementptr inbounds [100000 x i8], [100000 x i8]* %1, i64 0, i64 %59
  %61 = load i8, i8* %60, align 1
  %62 = load i32, i32* %7, align 4
  %63 = sext i32 %62 to i64
  %64 = getelementptr inbounds [26 x i8], [26 x i8]* %2, i64 0, i64 %63
  store i8 %61, i8* %64, align 1
  %65 = load i32, i32* %7, align 4
  %66 = sext i32 %65 to i64
  %67 = getelementptr inbounds [26 x i32], [26 x i32]* %5, i64 0, i64 %66
  store i32 1, i32* %67, align 4
  %68 = load i32, i32* %8, align 4
  %69 = add nsw i32 %68, 1
  store i32 %69, i32* %8, align 4
  %70 = load i32, i32* %6, align 4
  %71 = add nsw i32 %70, 1
  store i32 %71, i32* %6, align 4
  br label %72

72:                                               ; preds = %57, %53
  br label %17

73:                                               ; preds = %17
  store i32 0, i32* %7, align 4
  br label %74

74:                                               ; preds = %92, %73
  %75 = load i32, i32* %7, align 4
  %76 = load i32, i32* %8, align 4
  %77 = icmp slt i32 %75, %76
  br i1 %77, label %78, label %95

78:                                               ; preds = %74
  %79 = load i32, i32* %7, align 4
  %80 = sext i32 %79 to i64
  %81 = getelementptr inbounds [26 x i32], [26 x i32]* %5, i64 0, i64 %80
  %82 = load i32, i32* %81, align 4
  %83 = icmp eq i32 %82, 1
  br i1 %83, label %84, label %91

84:                                               ; preds = %78
  %85 = load i32, i32* %7, align 4
  %86 = sext i32 %85 to i64
  %87 = getelementptr inbounds [26 x i8], [26 x i8]* %2, i64 0, i64 %86
  %88 = load i8, i8* %87, align 1
  %89 = sext i8 %88 to i32
  %90 = call i32 (i8*, ...) @printf(i8* getelementptr inbounds ([4 x i8], [4 x i8]* @.str.2, i64 0, i64 0), i32 %89)
  br label %95

91:                                               ; preds = %78
  br label %92

92:                                               ; preds = %91
  %93 = load i32, i32* %7, align 4
  %94 = add nsw i32 %93, 1
  store i32 %94, i32* %7, align 4
  br label %74

95:                                               ; preds = %84, %74
  %96 = load i32, i32* %7, align 4
  %97 = load i32, i32* %8, align 4
  %98 = icmp eq i32 %96, %97
  br i1 %98, label %99, label %101

99:                                               ; preds = %95
  %100 = call i32 (i8*, ...) @printf(i8* getelementptr inbounds ([4 x i8], [4 x i8]* @.str.3, i64 0, i64 0))
  br label %101

101:                                              ; preds = %99, %95
  br label %102

102:                                              ; preds = %101
  %103 = load i32, i32* %4, align 4
  %104 = add nsw i32 %103, 1
  store i32 %104, i32* %4, align 4
  br label %10

105:                                              ; preds = %10
  ret void
}

declare dso_local i32 @__isoc99_scanf(i8*, ...) #1

declare dso_local i32 @printf(i8*, ...) #1


!llvm.module.flags = !{!0}
!llvm.ident = !{!1}

!0 = !{i32 1, !"wchar_size", i32 4}
!1 = !{!"clang version 10.0.0-4ubuntu1 "}
